; Function Attrs: mustprogress uwtable
define hidden noalias noundef ptr @_Z21proof2proof_converterR11ast_managerP3app(ptr noundef nonnull align 8 dereferenceable(976) %0, ptr noundef %1) local_unnamed_addr #3 personality ptr @__gxx_personality_v0 {
  %3 = icmp eq ptr %1, null
  br i1 %3, label %11, label %_ZN8proof2pcC2ER11ast_managerP3app.exit

_ZN8proof2pcC2ER11ast_managerP3app.exit:          ; preds = %2
  %4 = tail call noalias noundef ptr @_ZN6memory8allocateEm(i64 noundef 32)
  %5 = getelementptr inbounds nuw i8, ptr %4, i64 8
  store i32 0, ptr %5, align 8, !tbaa !3
  store ptr getelementptr inbounds nuw inrange(-16, 48) (i8, ptr @_ZTV8proof2pc, i64 16), ptr %4, align 8, !tbaa !12
  %6 = getelementptr inbounds nuw i8, ptr %4, i64 16
  store ptr %1, ptr %6, align 8, !tbaa !14
  %7 = getelementptr inbounds nuw i8, ptr %4, i64 24
  store ptr %0, ptr %7, align 8, !tbaa !18
  %8 = getelementptr inbounds nuw i8, ptr %1, i64 8
  %9 = load i32, ptr %8, align 4, !tbaa !19
  %10 = add i32 %9, 1
  store i32 %10, ptr %8, align 4, !tbaa !19
  br label %11

11:                                               ; preds = %2, %_ZN8proof2pcC2ER11ast_managerP3app.exit
  %.0 = phi ptr [ %4, %_ZN8proof2pcC2ER11ast_managerP3app.exit ], [ null, %2 ]
  ret ptr %.0
}